target datalayout = "e-m:e-p270:32:32-p271:32:32-p272:64:64-i64:64-i128:128-f80:128-n8:16:32:64-S128"
target triple = "x86_64-pc-linux-gnu"

%struct.tm = type { i32, i32, i32, i32, i32, i32, i32, i32, i32, i64, ptr }
%struct.RarLocalTime = type { i32, i32, i32, i32, i32, i32, i32, i32, i32 }
%class.RarTime = type { i64 }

@.str.1 = private unnamed_addr constant [23 x i32] [i32 37, i32 117, i32 45, i32 37, i32 48, i32 50, i32 117, i32 45, i32 37, i32 48, i32 50, i32 117, i32 32, i32 37, i32 48, i32 50, i32 117, i32 58, i32 37, i32 48, i32 50, i32 117, i32 0], align 4
@.str.2 = private unnamed_addr constant [17 x i32] [i32 63, i32 63, i32 63, i32 63, i32 45, i32 63, i32 63, i32 45, i32 63, i32 63, i32 32, i32 63, i32 63, i32 58, i32 63, i32 63, i32 0], align 4

; Function Attrs: mustprogress nounwind uwtable
define noundef i64 @_ZN7RarTime9GetUnixNSEv(ptr noundef nonnull align 8 dereferenceable(8) %0) #3 align 2 {
  %2 = alloca ptr, align 8
  %3 = alloca i64, align 8
  store ptr %0, ptr %2, align 8, !tbaa !3
  %4 = load ptr, ptr %2, align 8
  call void @llvm.lifetime.start.p0(i64 8, ptr %3) #6
  store i64 -6802270473709551616, ptr %3, align 8, !tbaa !10
  %5 = getelementptr inbounds nuw %class.RarTime, ptr %4, i32 0, i32 0
  %6 = load i64, ptr %5, align 8, !tbaa !34
  %7 = mul i64 %6, 1
  %8 = load i64, ptr %3, align 8, !tbaa !10
  %9 = sub i64 %7, %8
  call void @llvm.lifetime.end.p0(i64 8, ptr %3) #6
  ret i64 %9
}

; Function Attrs: mustprogress uwtable
define noundef i64 @_ZN7RarTime7GetUnixEv(ptr noundef nonnull align 8 dereferenceable(8) %0) #0 align 2 {
  %2 = alloca ptr, align 8
  store ptr %0, ptr %2, align 8, !tbaa !3
  %3 = load ptr, ptr %2, align 8
  %4 = call noundef i64 @_ZN7RarTime9GetUnixNSEv(ptr noundef nonnull align 8 dereferenceable(8) %3)
  %5 = udiv i64 %4, 1000000000
  ret i64 %5
}

; Function Attrs: mustprogress uwtable
define void @_ZN7RarTime8GetLocalEP12RarLocalTime(ptr noundef nonnull align 8 dereferenceable(8) %0, ptr noundef %1) #0 align 2 {
  %3 = alloca ptr, align 8
  %4 = alloca ptr, align 8
  %5 = alloca i64, align 8
  %6 = alloca ptr, align 8
  store ptr %0, ptr %3, align 8, !tbaa !3
  store ptr %1, ptr %4, align 8, !tbaa !8
  %7 = load ptr, ptr %3, align 8
  call void @llvm.lifetime.start.p0(i64 8, ptr %5) #6
  %8 = call noundef i64 @_ZN7RarTime7GetUnixEv(ptr noundef nonnull align 8 dereferenceable(8) %7)
  store i64 %8, ptr %5, align 8, !tbaa !10
  call void @llvm.lifetime.start.p0(i64 8, ptr %6) #6
  %9 = call ptr @localtime(ptr noundef %5) #6
  store ptr %9, ptr %6, align 8, !tbaa !12
  %10 = load ptr, ptr %6, align 8, !tbaa !12
  %11 = getelementptr inbounds nuw %struct.tm, ptr %10, i32 0, i32 5
  %12 = load i32, ptr %11, align 4, !tbaa !14
  %13 = add nsw i32 %12, 1900
  %14 = load ptr, ptr %4, align 8, !tbaa !8
  %15 = getelementptr inbounds nuw %struct.RarLocalTime, ptr %14, i32 0, i32 0
  store i32 %13, ptr %15, align 4, !tbaa !18
  %16 = load ptr, ptr %6, align 8, !tbaa !12
  %17 = getelementptr inbounds nuw %struct.tm, ptr %16, i32 0, i32 4
  %18 = load i32, ptr %17, align 8, !tbaa !20
  %19 = add nsw i32 %18, 1
  %20 = load ptr, ptr %4, align 8, !tbaa !8
  %21 = getelementptr inbounds nuw %struct.RarLocalTime, ptr %20, i32 0, i32 1
  store i32 %19, ptr %21, align 4, !tbaa !21
  %22 = load ptr, ptr %6, align 8, !tbaa !12
  %23 = getelementptr inbounds nuw %struct.tm, ptr %22, i32 0, i32 3
  %24 = load i32, ptr %23, align 4, !tbaa !22
  %25 = load ptr, ptr %4, align 8, !tbaa !8
  %26 = getelementptr inbounds nuw %struct.RarLocalTime, ptr %25, i32 0, i32 2
  store i32 %24, ptr %26, align 4, !tbaa !23
  %27 = load ptr, ptr %6, align 8, !tbaa !12
  %28 = getelementptr inbounds nuw %struct.tm, ptr %27, i32 0, i32 2
  %29 = load i32, ptr %28, align 8, !tbaa !24
  %30 = load ptr, ptr %4, align 8, !tbaa !8
  %31 = getelementptr inbounds nuw %struct.RarLocalTime, ptr %30, i32 0, i32 3
  store i32 %29, ptr %31, align 4, !tbaa !25
  %32 = load ptr, ptr %6, align 8, !tbaa !12
  %33 = getelementptr inbounds nuw %struct.tm, ptr %32, i32 0, i32 1
  %34 = load i32, ptr %33, align 4, !tbaa !26
  %35 = load ptr, ptr %4, align 8, !tbaa !8
  %36 = getelementptr inbounds nuw %struct.RarLocalTime, ptr %35, i32 0, i32 4
  store i32 %34, ptr %36, align 4, !tbaa !27
  %37 = load ptr, ptr %6, align 8, !tbaa !12
  %38 = getelementptr inbounds nuw %struct.tm, ptr %37, i32 0, i32 0
  %39 = load i32, ptr %38, align 8, !tbaa !28
  %40 = load ptr, ptr %4, align 8, !tbaa !8
  %41 = getelementptr inbounds nuw %struct.RarLocalTime, ptr %40, i32 0, i32 5
  store i32 %39, ptr %41, align 4, !tbaa !29
  %42 = load ptr, ptr %6, align 8, !tbaa !12
  %43 = getelementptr inbounds nuw %struct.tm, ptr %42, i32 0, i32 6
  %44 = load i32, ptr %43, align 8, !tbaa !30
  %45 = load ptr, ptr %4, align 8, !tbaa !8
  %46 = getelementptr inbounds nuw %struct.RarLocalTime, ptr %45, i32 0, i32 7
  store i32 %44, ptr %46, align 4, !tbaa !31
  %47 = load ptr, ptr %6, align 8, !tbaa !12
  %48 = getelementptr inbounds nuw %struct.tm, ptr %47, i32 0, i32 7
  %49 = load i32, ptr %48, align 4, !tbaa !32
  %50 = load ptr, ptr %4, align 8, !tbaa !8
  %51 = getelementptr inbounds nuw %struct.RarLocalTime, ptr %50, i32 0, i32 8
  store i32 %49, ptr %51, align 4, !tbaa !33
  %52 = getelementptr inbounds nuw %class.RarTime, ptr %7, i32 0, i32 0
  %53 = load i64, ptr %52, align 8, !tbaa !34
  %54 = urem i64 %53, 1000000000
  %55 = trunc i64 %54 to i32
  %56 = load ptr, ptr %4, align 8, !tbaa !8
  %57 = getelementptr inbounds nuw %struct.RarLocalTime, ptr %56, i32 0, i32 6
  store i32 %55, ptr %57, align 4, !tbaa !36
  call void @llvm.lifetime.end.p0(i64 8, ptr %6) #6
  call void @llvm.lifetime.end.p0(i64 8, ptr %5) #6
  ret void
}

; Function Attrs: mustprogress nounwind uwtable
define linkonce_odr noundef zeroext i1 @_ZN7RarTime5IsSetEv(ptr noundef nonnull align 8 dereferenceable(8) %0) #3 comdat align 2 {
  %2 = alloca ptr, align 8
  store ptr %0, ptr %2, align 8, !tbaa !3
  %3 = load ptr, ptr %2, align 8
  %4 = getelementptr inbounds nuw %class.RarTime, ptr %3, i32 0, i32 0
  %5 = load i64, ptr %4, align 8, !tbaa !34
  %6 = icmp ne i64 %5, 0
  ret i1 %6
}

; Function Attrs: mustprogress uwtable
define void @_ZN7RarTime7GetTextEPwmb(ptr noundef nonnull align 8 dereferenceable(8) %0, ptr noundef %1, i64 noundef %2, i1 noundef zeroext %3) #0 align 2 {
  %5 = alloca ptr, align 8
  %6 = alloca ptr, align 8
  %7 = alloca i64, align 8
  %8 = alloca i8, align 1
  %9 = alloca %struct.RarLocalTime, align 4
  store ptr %0, ptr %5, align 8, !tbaa !3
  store ptr %1, ptr %6, align 8, !tbaa !39
  store i64 %2, ptr %7, align 8, !tbaa !10
  %10 = zext i1 %3 to i8
  store i8 %10, ptr %8, align 1, !tbaa !41
  %11 = load ptr, ptr %5, align 8
  %12 = call noundef zeroext i1 @_ZN7RarTime5IsSetEv(ptr noundef nonnull align 8 dereferenceable(8) %11)
  br i1 %12, label %13, label %50

13:                                               ; preds = %4
  call void @llvm.lifetime.start.p0(i64 36, ptr %9) #6
  call void @_ZN7RarTime8GetLocalEP12RarLocalTime(ptr noundef nonnull align 8 dereferenceable(8) %11, ptr noundef %9)
  %14 = load i8, ptr %8, align 1, !tbaa !41, !range !43, !noundef !44
  %15 = trunc i8 %14 to i1
  br i1 %15, label %16, label %35

16:                                               ; preds = %13
  %17 = load ptr, ptr %6, align 8, !tbaa !39
  %18 = load i64, ptr %7, align 8, !tbaa !10
  %19 = getelementptr inbounds nuw %struct.RarLocalTime, ptr %9, i32 0, i32 0
  %20 = load i32, ptr %19, align 4, !tbaa !18
  %21 = getelementptr inbounds nuw %struct.RarLocalTime, ptr %9, i32 0, i32 1
  %22 = load i32, ptr %21, align 4, !tbaa !21
  %23 = getelementptr inbounds nuw %struct.RarLocalTime, ptr %9, i32 0, i32 2
  %24 = load i32, ptr %23, align 4, !tbaa !23
  %25 = getelementptr inbounds nuw %struct.RarLocalTime, ptr %9, i32 0, i32 3
  %26 = load i32, ptr %25, align 4, !tbaa !25
  %27 = getelementptr inbounds nuw %struct.RarLocalTime, ptr %9, i32 0, i32 4
  %28 = load i32, ptr %27, align 4, !tbaa !27
  %29 = getelementptr inbounds nuw %struct.RarLocalTime, ptr %9, i32 0, i32 5
  %30 = load i32, ptr %29, align 4, !tbaa !29
  %31 = getelementptr inbounds nuw %struct.RarLocalTime, ptr %9, i32 0, i32 6
  %32 = load i32, ptr %31, align 4, !tbaa !36
  %33 = mul i32 %32, 1
  %34 = call i32 (ptr, i64, ptr, ...) @swprintf(ptr noundef %17, i64 noundef %18, ptr noundef @.str, i32 noundef %20, i32 noundef %22, i32 noundef %24, i32 noundef %26, i32 noundef %28, i32 noundef %30, i32 noundef %33) #6
  br label %49

35:                                               ; preds = %13
  %36 = load ptr, ptr %6, align 8, !tbaa !39
  %37 = load i64, ptr %7, align 8, !tbaa !10
  %38 = getelementptr inbounds nuw %struct.RarLocalTime, ptr %9, i32 0, i32 0
  %39 = load i32, ptr %38, align 4, !tbaa !18
  %40 = getelementptr inbounds nuw %struct.RarLocalTime, ptr %9, i32 0, i32 1
  %41 = load i32, ptr %40, align 4, !tbaa !21
  %42 = getelementptr inbounds nuw %struct.RarLocalTime, ptr %9, i32 0, i32 2
  %43 = load i32, ptr %42, align 4, !tbaa !23
  %44 = getelementptr inbounds nuw %struct.RarLocalTime, ptr %9, i32 0, i32 3
  %45 = load i32, ptr %44, align 4, !tbaa !25
  %46 = getelementptr inbounds nuw %struct.RarLocalTime, ptr %9, i32 0, i32 4
  %47 = load i32, ptr %46, align 4, !tbaa !27
  %48 = call i32 (ptr, i64, ptr, ...) @swprintf(ptr noundef %36, i64 noundef %37, ptr noundef @.str.1, i32 noundef %39, i32 noundef %41, i32 noundef %43, i32 noundef %45, i32 noundef %47) #6
  br label %49

49:                                               ; preds = %35, %16
  call void @llvm.lifetime.end.p0(i64 36, ptr %9) #6
  br label %53

50:                                               ; preds = %4
  %51 = load ptr, ptr %6, align 8, !tbaa !39
  %52 = load i64, ptr %7, align 8, !tbaa !10
  call void @_Z8wcsncpyzPwPKwm(ptr noundef %51, ptr noundef @.str.2, i64 noundef %52)
  br label %53

53:                                               ; preds = %50, %49
  ret void
}