; Function Attrs: mustprogress uwtable
define void @_ZN7RarTime7GetTextEPwmb(ptr noundef nonnull readonly align 8 captures(none) dereferenceable(8) %0, ptr noundef %1, i64 noundef %2, i1 noundef zeroext %3) local_unnamed_addr #7 align 2 {
  %5 = alloca i64, align 8
  %6 = load i64, ptr %0, align 8, !tbaa !3
  %.not = icmp eq i64 %6, 0
  br i1 %.not, label %31, label %7

7:                                                ; preds = %4
  call void @llvm.lifetime.start.p0(i64 8, ptr nonnull %5) #13
  %8 = add i64 %6, 6802270473709551616
  %9 = udiv i64 %8, 1000000000
  store i64 %9, ptr %5, align 8, !tbaa !8
  %10 = call ptr @localtime(ptr noundef nonnull %5) #13
  %11 = getelementptr inbounds nuw i8, ptr %10, i64 20
  %12 = load i32, ptr %11, align 4, !tbaa !9
  %13 = add nsw i32 %12, 1900
  %14 = getelementptr inbounds nuw i8, ptr %10, i64 16
  %15 = load i32, ptr %14, align 8, !tbaa !16
  %16 = add nsw i32 %15, 1
  %17 = getelementptr inbounds nuw i8, ptr %10, i64 12
  %18 = load i32, ptr %17, align 4, !tbaa !18
  %19 = getelementptr inbounds nuw i8, ptr %10, i64 8
  %20 = load i32, ptr %19, align 8, !tbaa !20
  %21 = getelementptr inbounds nuw i8, ptr %10, i64 4
  %22 = load i32, ptr %21, align 4, !tbaa !22
  %23 = load i32, ptr %10, align 8, !tbaa !24
  %24 = load i64, ptr %0, align 8, !tbaa !3
  call void @llvm.lifetime.end.p0(i64 8, ptr nonnull %5) #13
  br i1 %3, label %25, label %29

25:                                               ; preds = %7
  %26 = urem i64 %24, 1000000000
  %27 = trunc nuw nsw i64 %26 to i32
  %28 = call i32 (ptr, i64, ptr, ...) @swprintf(ptr noundef %1, i64 noundef %2, ptr noundef nonnull @.str, i32 noundef %13, i32 noundef %16, i32 noundef %18, i32 noundef %20, i32 noundef %22, i32 noundef %23, i32 noundef %27) #13
  br label %32

29:                                               ; preds = %7
  %30 = call i32 (ptr, i64, ptr, ...) @swprintf(ptr noundef %1, i64 noundef %2, ptr noundef nonnull @.str.1, i32 noundef %13, i32 noundef %16, i32 noundef %18, i32 noundef %20, i32 noundef %22) #13
  br label %32

31:                                               ; preds = %4
  tail call void @_Z8wcsncpyzPwPKwm(ptr noundef %1, ptr noundef nonnull @.str.2, i64 noundef %2)
  br label %32

32:                                               ; preds = %25, %29, %31
  ret void
}